; Function Attrs: mustprogress uwtable
define hidden void @_ZN4cvc58internal6theory21getModelFromSubsolverERNS0_12SolverEngineERKSt6vectorINS0_12NodeTemplateILb1EEESaIS6_EERS8_(ptr noundef nonnull align 8 dereferenceable(296) %0, ptr noundef nonnull readonly align 8 captures(none) dereferenceable(24) %1, ptr noundef nonnull align 8 dereferenceable(24) %2) local_unnamed_addr #3 personality ptr @__gxx_personality_v0 {
  %4 = alloca %"class.cvc5::internal::NodeTemplate", align 8
  %5 = load ptr, ptr %1, align 8, !tbaa !47
  %6 = getelementptr inbounds nuw i8, ptr %1, i64 8
  %7 = load ptr, ptr %6, align 8, !tbaa !47
  %.not11 = icmp eq ptr %5, %7
  br i1 %.not11, label %._crit_edge, label %.lr.ph

.lr.ph:                                           ; preds = %3
  %8 = getelementptr inbounds nuw i8, ptr %2, i64 8
  %9 = getelementptr inbounds nuw i8, ptr %2, i64 16
  br label %10

._crit_edge:                                      ; preds = %_ZN4cvc58internal12NodeTemplateILb1EED2Ev.exit, %3
  ret void

10:                                               ; preds = %.lr.ph, %_ZN4cvc58internal12NodeTemplateILb1EED2Ev.exit
  %.sroa.08.012 = phi ptr [ %5, %.lr.ph ], [ %45, %_ZN4cvc58internal12NodeTemplateILb1EED2Ev.exit ]
  call void @llvm.lifetime.start.p0(i64 8, ptr nonnull %4) #20
  call void @_ZNK4cvc58internal12SolverEngine8getValueERKNS0_12NodeTemplateILb1EEE(ptr dead_on_unwind nonnull writable sret(%"class.cvc5::internal::NodeTemplate") align 8 %4, ptr noundef nonnull align 8 dereferenceable(296) %0, ptr noundef nonnull align 8 dereferenceable(8) %.sroa.08.012)
  %11 = load ptr, ptr %8, align 8, !tbaa !43
  %12 = load ptr, ptr %9, align 8, !tbaa !46
  %.not.i = icmp eq ptr %11, %12
  br i1 %.not.i, label %31, label %13

13:                                               ; preds = %10
  %14 = load ptr, ptr %4, align 8, !tbaa !15
  store ptr %14, ptr %11, align 8, !tbaa !15
  %15 = load i64, ptr %14, align 8
  %16 = lshr i64 %15, 40
  %17 = trunc nuw nsw i64 %16 to i32
  %18 = and i32 %17, 1048575
  %19 = icmp samesign ult i32 %18, 1048574
  br i1 %19, label %20, label %25, !prof !13

20:                                               ; preds = %13
  %21 = add i64 %15, 1099511627776
  %22 = and i64 %21, 1152920405095219200
  %23 = and i64 %15, -1152920405095219201
  %24 = or disjoint i64 %22, %23
  store i64 %24, ptr %14, align 8
  br label %_ZNSt16allocator_traitsISaIN4cvc58internal12NodeTemplateILb1EEEEE9constructIS3_JRKS3_EEEvRS4_PT_DpOT0_.exit.i

25:                                               ; preds = %13
  %26 = icmp eq i32 %18, 1048574
  br i1 %26, label %27, label %_ZNSt16allocator_traitsISaIN4cvc58internal12NodeTemplateILb1EEEEE9constructIS3_JRKS3_EEEvRS4_PT_DpOT0_.exit.i, !prof !14

27:                                               ; preds = %25
  %28 = or i64 %15, 1152920405095219200
  store i64 %28, ptr %14, align 8
  invoke void @_ZN4cvc58internal4expr9NodeValue20markRefCountMaxedOutEv(ptr noundef nonnull align 8 dereferenceable(24) %14)
          to label %_ZNSt16allocator_traitsISaIN4cvc58internal12NodeTemplateILb1EEEEE9constructIS3_JRKS3_EEEvRS4_PT_DpOT0_.exit.i unwind label %46

_ZNSt16allocator_traitsISaIN4cvc58internal12NodeTemplateILb1EEEEE9constructIS3_JRKS3_EEEvRS4_PT_DpOT0_.exit.i: ; preds = %27, %25, %20
  %29 = load ptr, ptr %8, align 8, !tbaa !43
  %30 = getelementptr inbounds nuw i8, ptr %29, i64 8
  store ptr %30, ptr %8, align 8, !tbaa !43
  br label %_ZNSt6vectorIN4cvc58internal12NodeTemplateILb1EEESaIS3_EE9push_backERKS3_.exit

31:                                               ; preds = %10
  invoke void @_ZNSt6vectorIN4cvc58internal12NodeTemplateILb1EEESaIS3_EE17_M_realloc_insertIJRKS3_EEEvN9__gnu_cxx17__normal_iteratorIPS3_S5_EEDpOT_(ptr noundef nonnull align 8 dereferenceable(24) %2, ptr %11, ptr noundef nonnull align 8 dereferenceable(8) %4)
          to label %_ZNSt6vectorIN4cvc58internal12NodeTemplateILb1EEESaIS3_EE9push_backERKS3_.exit unwind label %46

_ZNSt6vectorIN4cvc58internal12NodeTemplateILb1EEESaIS3_EE9push_backERKS3_.exit: ; preds = %_ZNSt16allocator_traitsISaIN4cvc58internal12NodeTemplateILb1EEEEE9constructIS3_JRKS3_EEEvRS4_PT_DpOT0_.exit.i, %31
  %32 = load ptr, ptr %4, align 8, !tbaa !15
  %33 = load i64, ptr %32, align 8
  %34 = and i64 %33, 1152920405095219200
  %.not.i.i = icmp eq i64 %34, 1152920405095219200
  br i1 %.not.i.i, label %_ZN4cvc58internal12NodeTemplateILb1EED2Ev.exit, label %35, !prof !14

35:                                               ; preds = %_ZNSt6vectorIN4cvc58internal12NodeTemplateILb1EEESaIS3_EE9push_backERKS3_.exit
  %36 = add i64 %33, 1152920405095219200
  %37 = and i64 %36, 1152920405095219200
  %38 = and i64 %33, -1152920405095219201
  %39 = or disjoint i64 %37, %38
  store i64 %39, ptr %32, align 8
  %40 = icmp eq i64 %37, 0
  br i1 %40, label %41, label %_ZN4cvc58internal12NodeTemplateILb1EED2Ev.exit, !prof !14

41:                                               ; preds = %35
  invoke void @_ZN4cvc58internal4expr9NodeValue15markForDeletionEv(ptr noundef nonnull align 8 dereferenceable(24) %32)
          to label %_ZN4cvc58internal12NodeTemplateILb1EED2Ev.exit unwind label %42

42:                                               ; preds = %41
  %43 = landingpad { ptr, i32 }
          catch ptr null
  %44 = extractvalue { ptr, i32 } %43, 0
  call void @__clang_call_terminate(ptr %44) #21
  unreachable

_ZN4cvc58internal12NodeTemplateILb1EED2Ev.exit:   ; preds = %_ZNSt6vectorIN4cvc58internal12NodeTemplateILb1EEESaIS3_EE9push_backERKS3_.exit, %35, %41
  call void @llvm.lifetime.end.p0(i64 8, ptr nonnull %4) #20
  %45 = getelementptr inbounds nuw i8, ptr %.sroa.08.012, i64 8
  %.not = icmp eq ptr %45, %7
  br i1 %.not, label %._crit_edge, label %10

46:                                               ; preds = %31, %27
  %47 = landingpad { ptr, i32 }
          cleanup
  call void @_ZN4cvc58internal12NodeTemplateILb1EED2Ev(ptr noundef nonnull align 8 dereferenceable(8) %4) #20
  call void @llvm.lifetime.end.p0(i64 8, ptr nonnull %4) #20
  resume { ptr, i32 } %47
}